; Function Attrs: mustprogress nofree norecurse nosync nounwind willreturn memory(read, inaccessiblemem: none) uwtable
define dso_local noundef zeroext i1 @_ZNK25cmInstallCommandArguments17GetExcludeFromAllEv(ptr noundef nonnull readonly align 8 captures(none) dereferenceable(440) %0) local_unnamed_addr #6 align 2 {
  br label %tailrecurse

tailrecurse:                                      ; preds = %5, %1
  %.tr = phi ptr [ %0, %1 ], [ %7, %5 ]
  %2 = getelementptr inbounds nuw i8, ptr %.tr, i64 208
  %3 = load i8, ptr %2, align 8, !tbaa !14, !range !64, !noundef !65
  %4 = trunc nuw i8 %3 to i1
  br i1 %4, label %8, label %5

5:                                                ; preds = %tailrecurse
  %6 = getelementptr inbounds nuw i8, ptr %.tr, i64 400
  %7 = load ptr, ptr %6, align 8, !tbaa !41
  %.not = icmp eq ptr %7, null
  br i1 %.not, label %8, label %tailrecurse

8:                                                ; preds = %5, %tailrecurse
  ret i1 %4
}